target datalayout = "e-m:e-p270:32:32-p271:32:32-p272:64:64-i64:64-i128:128-f80:128-n8:16:32:64-S128"
target triple = "x86_64-pc-linux-gnu"

@stderr = external global ptr, align 8
@mode = internal global i32 0, align 4
@_server_fd = internal global i32 -1, align 4
@.str.12 = private unnamed_addr constant [21 x i8] c"cannot accept(): %s\0A\00", align 1
@.str.13 = private unnamed_addr constant [19 x i8] c"cannot fork(): %s\0A\00", align 1

; Function Attrs: null_pointer_is_valid sspstrong uwtable
define hidden i32 @sharkd_loop(i32 noundef %0, ptr noundef %1) #0 {
  %3 = alloca i32, align 4
  %4 = alloca ptr, align 8
  %5 = alloca i32, align 4
  %6 = alloca i32, align 4
  %7 = alloca i32, align 4
  store i32 %0, ptr %3, align 4
  store ptr %1, ptr %4, align 8
  %8 = load i32, ptr @mode, align 4
  %9 = icmp eq i32 %8, 1
  br i1 %9, label %13, label %10

10:                                               ; preds = %2
  %11 = load i32, ptr @mode, align 4
  %12 = icmp eq i32 %11, 3
  br i1 %12, label %13, label %16

13:                                               ; preds = %10, %2
  %14 = load i32, ptr @mode, align 4
  %15 = call i32 @sharkd_session_main(i32 noundef %14)
  ret i32 %15

16:                                               ; preds = %10
  br label %17

17:                                               ; preds = %16, %55, %57
  call void @llvm.lifetime.start.p0(i64 4, ptr %5) #9
  call void @llvm.lifetime.start.p0(i64 4, ptr %6) #9
  %18 = load i32, ptr @_server_fd, align 4
  %19 = call i32 @accept(i32 noundef %18, ptr noundef null, ptr noundef null)
  store i32 %19, ptr %6, align 4
  %20 = load i32, ptr %6, align 4
  %21 = icmp eq i32 %20, -1
  br i1 %21, label %22, label %28

22:                                               ; preds = %17
  %23 = load ptr, ptr @stderr, align 8
  %24 = call ptr @__errno_location() #12
  %25 = load i32, ptr %24, align 4
  %26 = call ptr @g_strerror(i32 noundef %25) #12
  %27 = call i32 (ptr, i32, ptr, ...) @__fprintf_chk(ptr noundef %23, i32 noundef 2, ptr noundef @.str.12, ptr noundef %26)
  store i32 2, ptr %7, align 4
  br label %55

28:                                               ; preds = %17
  %29 = call i32 @fork() #9
  store i32 %29, ptr %5, align 4
  %30 = load i32, ptr %5, align 4
  %31 = icmp eq i32 %30, 0
  br i1 %31, label %32, label %43

32:                                               ; preds = %28
  %33 = load i32, ptr @_server_fd, align 4
  %34 = call i32 @close(i32 noundef %33)
  %35 = load i32, ptr %6, align 4
  %36 = call i32 @dup2(i32 noundef %35, i32 noundef 0) #9
  %37 = load i32, ptr %6, align 4
  %38 = call i32 @dup2(i32 noundef %37, i32 noundef 1) #9
  %39 = load i32, ptr %6, align 4
  %40 = call i32 @close(i32 noundef %39)
  %41 = load i32, ptr @mode, align 4
  %42 = call i32 @sharkd_session_main(i32 noundef %41)
  call void @exit(i32 noundef %42) #11
  unreachable

43:                                               ; preds = %28
  %44 = load i32, ptr %5, align 4
  %45 = icmp eq i32 %44, -1
  br i1 %45, label %46, label %52

46:                                               ; preds = %43
  %47 = load ptr, ptr @stderr, align 8
  %48 = call ptr @__errno_location() #12
  %49 = load i32, ptr %48, align 4
  %50 = call ptr @g_strerror(i32 noundef %49) #12
  %51 = call i32 (ptr, i32, ptr, ...) @__fprintf_chk(ptr noundef %47, i32 noundef 2, ptr noundef @.str.13, ptr noundef %50)
  br label %52

52:                                               ; preds = %46, %43
  %53 = load i32, ptr %6, align 4
  %54 = call i32 @close(i32 noundef %53)
  store i32 0, ptr %7, align 4
  br label %55

55:                                               ; preds = %52, %22
  call void @llvm.lifetime.end.p0(i64 4, ptr %6) #9
  call void @llvm.lifetime.end.p0(i64 4, ptr %5) #9
  %56 = load i32, ptr %7, align 4
  switch i32 %56, label %58 [
    i32 0, label %57
    i32 2, label %17
  ]

57:                                               ; preds = %55
  br label %17

58:                                               ; preds = %55
  unreachable
}