; Function Attrs: null_pointer_is_valid sspstrong uwtable
define hidden i32 @sharkd_loop(i32 noundef %0, ptr noundef readnone captures(none) %1) local_unnamed_addr #0 {
  %3 = load i32, ptr @mode, align 4
  %4 = and i32 %3, -3
  %or.cond = icmp eq i32 %4, 1
  br i1 %or.cond, label %5, label %.preheader

5:                                                ; preds = %2
  %6 = tail call i32 @sharkd_session_main(i32 noundef %3)
  ret i32 %6

.preheader:                                       ; preds = %2, %.preheader.backedge
  %7 = load i32, ptr @_server_fd, align 4
  %8 = tail call i32 @accept(i32 noundef %7, ptr noundef null, ptr noundef null)
  %9 = icmp eq i32 %8, -1
  br i1 %9, label %10, label %16

10:                                               ; preds = %.preheader
  %11 = load ptr, ptr @stderr, align 8
  %12 = tail call ptr @__errno_location() #12
  %13 = load i32, ptr %12, align 4
  %14 = tail call ptr @g_strerror(i32 noundef %13) #12
  %15 = tail call i32 (ptr, i32, ptr, ...) @__fprintf_chk(ptr noundef %11, i32 noundef 2, ptr noundef nonnull @.str.12, ptr noundef %14)
  br label %.preheader.backedge

16:                                               ; preds = %.preheader
  %17 = tail call i32 @fork() #10
  switch i32 %17, label %32 [
    i32 0, label %18
    i32 -1, label %26
  ]

18:                                               ; preds = %16
  %19 = load i32, ptr @_server_fd, align 4
  %20 = tail call i32 @close(i32 noundef %19)
  %21 = tail call i32 @dup2(i32 noundef %8, i32 noundef 0) #10
  %22 = tail call i32 @dup2(i32 noundef %8, i32 noundef 1) #10
  %23 = tail call i32 @close(i32 noundef %8)
  %24 = load i32, ptr @mode, align 4
  %25 = tail call i32 @sharkd_session_main(i32 noundef %24)
  tail call void @exit(i32 noundef %25) #11
  unreachable

26:                                               ; preds = %16
  %27 = load ptr, ptr @stderr, align 8
  %28 = tail call ptr @__errno_location() #12
  %29 = load i32, ptr %28, align 4
  %30 = tail call ptr @g_strerror(i32 noundef %29) #12
  %31 = tail call i32 (ptr, i32, ptr, ...) @__fprintf_chk(ptr noundef %27, i32 noundef 2, ptr noundef nonnull @.str.13, ptr noundef %30)
  br label %32

32:                                               ; preds = %16, %26
  %33 = tail call i32 @close(i32 noundef %8)
  br label %.preheader.backedge

.preheader.backedge:                              ; preds = %32, %10
  br label %.preheader
}